; Function Attrs: mustprogress uwtable
define hidden void @_ZN4lean17for_each_level_fn5applyERKNS_5levelE(ptr noundef nonnull align 8 dereferenceable(32) %0, ptr noundef nonnull align 8 dereferenceable(8) %1) local_unnamed_addr #0 align 2 {
  %3 = getelementptr inbounds nuw i8, ptr %0, i64 16
  %4 = load ptr, ptr %3, align 8, !tbaa !44
  %.not.i.i7 = icmp eq ptr %4, null
  br i1 %.not.i.i7, label %tailrecurse._crit_edge, label %_ZNKSt8functionIFbRKN4lean5levelEEEclES3_.exit.lr.ph

_ZNKSt8functionIFbRKN4lean5levelEEEclES3_.exit.lr.ph: ; preds = %2
  %5 = getelementptr inbounds nuw i8, ptr %0, i64 24
  br label %_ZNKSt8functionIFbRKN4lean5levelEEEclES3_.exit

tailrecurse._crit_edge:                           ; preds = %tailrecurse.backedge, %2
  tail call void @_ZSt25__throw_bad_function_callv() #20
  unreachable

_ZNKSt8functionIFbRKN4lean5levelEEEclES3_.exit:   ; preds = %_ZNKSt8functionIFbRKN4lean5levelEEEclES3_.exit.lr.ph, %tailrecurse.backedge
  %.tr68 = phi ptr [ %1, %_ZNKSt8functionIFbRKN4lean5levelEEEclES3_.exit.lr.ph ], [ %.tr6.be, %tailrecurse.backedge ]
  %6 = load ptr, ptr %5, align 8, !tbaa !46
  %7 = tail call noundef zeroext i1 %6(ptr noundef nonnull align 8 dereferenceable(32) %0, ptr noundef nonnull align 8 dereferenceable(8) %.tr68)
  br i1 %7, label %8, label %_ZNK4lean5level4kindEv.exit.thread

8:                                                ; preds = %_ZNKSt8functionIFbRKN4lean5levelEEEclES3_.exit
  %9 = load ptr, ptr %.tr68, align 8, !tbaa !3
  %10 = ptrtoint ptr %9 to i64
  %11 = and i64 %10, 1
  %.not.i = icmp eq i64 %11, 0
  br i1 %.not.i, label %_ZNK4lean5level4kindEv.exit, label %_ZNK4lean5level4kindEv.exit.thread

_ZNK4lean5level4kindEv.exit:                      ; preds = %8
  %12 = getelementptr i8, ptr %9, i64 4
  %.val.i = load i32, ptr %12, align 4
  %13 = lshr i32 %.val.i, 24
  %trunc = trunc nuw i32 %13 to i8
  switch i8 %trunc, label %_ZNK4lean5level4kindEv.exit.thread [
    i8 1, label %14
    i8 2, label %17
    i8 3, label %17
  ]

14:                                               ; preds = %_ZNK4lean5level4kindEv.exit
  %15 = getelementptr inbounds nuw i8, ptr %9, i64 8
  br label %tailrecurse.backedge

tailrecurse.backedge:                             ; preds = %14, %17
  %.tr6.be = phi ptr [ %15, %14 ], [ %20, %17 ]
  %16 = load ptr, ptr %3, align 8, !tbaa !44
  %.not.i.i = icmp eq ptr %16, null
  br i1 %.not.i.i, label %tailrecurse._crit_edge, label %_ZNKSt8functionIFbRKN4lean5levelEEEclES3_.exit

17:                                               ; preds = %_ZNK4lean5level4kindEv.exit, %_ZNK4lean5level4kindEv.exit
  %18 = getelementptr inbounds nuw i8, ptr %9, i64 8
  tail call void @_ZN4lean17for_each_level_fn5applyERKNS_5levelE(ptr noundef nonnull align 8 dereferenceable(32) %0, ptr noundef nonnull align 8 dereferenceable(8) %18)
  %19 = load ptr, ptr %.tr68, align 8, !tbaa !3
  %20 = getelementptr inbounds nuw i8, ptr %19, i64 16
  br label %tailrecurse.backedge

_ZNK4lean5level4kindEv.exit.thread:               ; preds = %8, %_ZNKSt8functionIFbRKN4lean5levelEEEclES3_.exit, %_ZNK4lean5level4kindEv.exit
  ret void
}